target datalayout = "e-m:e-p270:32:32-p271:32:32-p272:64:64-i64:64-i128:128-f80:128-n8:16:32:64-S128"
target triple = "x86_64-pc-linux-gnu"

%struct.chord_set = type { ptr, i32, i32, ptr, i32, i32, i32, i32, i32, i32 }
%struct.IPlane = type { ptr, i32, i32, i32, i32, i32, ptr, ptr, ptr, ptr, ptr, ptr }
%struct.LUT = type { ptr, ptr, i32, i32, i32, i32, i32, i32 }

; Function Attrs: nounwind uwtable
define internal void @compute_min_row(ptr noundef %0, ptr noundef %1, ptr noundef %2, i32 noundef %3, i32 noundef %4) #0 {
  %6 = alloca ptr, align 8
  %7 = alloca ptr, align 8
  %8 = alloca ptr, align 8
  %9 = alloca i32, align 4
  %10 = alloca i32, align 4
  %11 = alloca i32, align 4
  %12 = alloca i32, align 4
  store ptr %0, ptr %6, align 8, !tbaa !97
  store ptr %1, ptr %7, align 8, !tbaa !152
  store ptr %2, ptr %8, align 8, !tbaa !89
  store i32 %3, ptr %9, align 4, !tbaa !24
  store i32 %4, ptr %10, align 4, !tbaa !24
  %13 = load i32, ptr %10, align 4, !tbaa !24
  %14 = load i32, ptr %9, align 4, !tbaa !24
  %15 = add nsw i32 %13, %14
  %16 = icmp sge i32 %15, 0
  br i1 %16, label %17, label %52

17:                                               ; preds = %5
  %18 = load i32, ptr %10, align 4, !tbaa !24
  %19 = load i32, ptr %9, align 4, !tbaa !24
  %20 = add nsw i32 %18, %19
  %21 = load ptr, ptr %6, align 8, !tbaa !97
  %22 = getelementptr inbounds nuw %struct.IPlane, ptr %21, i32 0, i32 2
  %23 = load i32, ptr %22, align 4, !tbaa !77
  %24 = icmp slt i32 %20, %23
  br i1 %24, label %25, label %52

25:                                               ; preds = %17
  %26 = load ptr, ptr %7, align 8, !tbaa !152
  %27 = getelementptr inbounds nuw %struct.LUT, ptr %26, i32 0, i32 0
  %28 = load ptr, ptr %27, align 8, !tbaa !162
  %29 = load i32, ptr %9, align 4, !tbaa !24
  %30 = sext i32 %29 to i64
  %31 = getelementptr inbounds ptr, ptr %28, i64 %30
  %32 = load ptr, ptr %31, align 8, !tbaa !163
  %33 = getelementptr inbounds ptr, ptr %32, i64 0
  %34 = load ptr, ptr %33, align 8, !tbaa !72
  %35 = load ptr, ptr %6, align 8, !tbaa !97
  %36 = getelementptr inbounds nuw %struct.IPlane, ptr %35, i32 0, i32 0
  %37 = load ptr, ptr %36, align 8, !tbaa !99
  %38 = load i32, ptr %10, align 4, !tbaa !24
  %39 = load i32, ptr %9, align 4, !tbaa !24
  %40 = add nsw i32 %38, %39
  %41 = sext i32 %40 to i64
  %42 = getelementptr inbounds ptr, ptr %37, i64 %41
  %43 = load ptr, ptr %42, align 8, !tbaa !72
  %44 = load ptr, ptr %7, align 8, !tbaa !152
  %45 = getelementptr inbounds nuw %struct.LUT, ptr %44, i32 0, i32 5
  %46 = load i32, ptr %45, align 4, !tbaa !168
  %47 = load ptr, ptr %7, align 8, !tbaa !152
  %48 = getelementptr inbounds nuw %struct.LUT, ptr %47, i32 0, i32 7
  %49 = load i32, ptr %48, align 4, !tbaa !164
  %50 = mul nsw i32 %46, %49
  %51 = sext i32 %50 to i64
  call void @llvm.memcpy.p0.p0.i64(ptr align 1 %34, ptr align 1 %43, i64 %51, i1 false)
  br label %70

52:                                               ; preds = %17, %5
  %53 = load ptr, ptr %7, align 8, !tbaa !152
  %54 = getelementptr inbounds nuw %struct.LUT, ptr %53, i32 0, i32 0
  %55 = load ptr, ptr %54, align 8, !tbaa !162
  %56 = load i32, ptr %9, align 4, !tbaa !24
  %57 = sext i32 %56 to i64
  %58 = getelementptr inbounds ptr, ptr %55, i64 %57
  %59 = load ptr, ptr %58, align 8, !tbaa !163
  %60 = getelementptr inbounds ptr, ptr %59, i64 0
  %61 = load ptr, ptr %60, align 8, !tbaa !72
  %62 = load ptr, ptr %7, align 8, !tbaa !152
  %63 = getelementptr inbounds nuw %struct.LUT, ptr %62, i32 0, i32 5
  %64 = load i32, ptr %63, align 4, !tbaa !168
  %65 = load ptr, ptr %7, align 8, !tbaa !152
  %66 = getelementptr inbounds nuw %struct.LUT, ptr %65, i32 0, i32 7
  %67 = load i32, ptr %66, align 4, !tbaa !164
  %68 = mul nsw i32 %64, %67
  %69 = sext i32 %68 to i64
  call void @llvm.memset.p0.i64(ptr align 1 %61, i8 -1, i64 %69, i1 false)
  br label %70

70:                                               ; preds = %52, %25
  call void @llvm.lifetime.start.p0(i64 4, ptr %11) #12
  store i32 1, ptr %11, align 4, !tbaa !24
  br label %71

71:                                               ; preds = %224, %70
  %72 = load i32, ptr %11, align 4, !tbaa !24
  %73 = load ptr, ptr %8, align 8, !tbaa !89
  %74 = getelementptr inbounds nuw %struct.chord_set, ptr %73, i32 0, i32 4
  %75 = load i32, ptr %74, align 8, !tbaa !96
  %76 = icmp slt i32 %72, %75
  br i1 %76, label %78, label %77

77:                                               ; preds = %71
  call void @llvm.lifetime.end.p0(i64 4, ptr %11) #12
  br label %227

78:                                               ; preds = %71
  call void @llvm.lifetime.start.p0(i64 4, ptr %12) #12
  %79 = load ptr, ptr %8, align 8, !tbaa !89
  %80 = getelementptr inbounds nuw %struct.chord_set, ptr %79, i32 0, i32 3
  %81 = load ptr, ptr %80, align 8, !tbaa !118
  %82 = load i32, ptr %11, align 4, !tbaa !24
  %83 = sext i32 %82 to i64
  %84 = getelementptr inbounds i32, ptr %81, i64 %83
  %85 = load i32, ptr %84, align 4, !tbaa !24
  %86 = load ptr, ptr %8, align 8, !tbaa !89
  %87 = getelementptr inbounds nuw %struct.chord_set, ptr %86, i32 0, i32 3
  %88 = load ptr, ptr %87, align 8, !tbaa !118
  %89 = load i32, ptr %11, align 4, !tbaa !24
  %90 = sub nsw i32 %89, 1
  %91 = sext i32 %90 to i64
  %92 = getelementptr inbounds i32, ptr %88, i64 %91
  %93 = load i32, ptr %92, align 4, !tbaa !24
  %94 = sub nsw i32 %85, %93
  store i32 %94, ptr %12, align 4, !tbaa !24
  %95 = load ptr, ptr %6, align 8, !tbaa !97
  %96 = getelementptr inbounds nuw %struct.IPlane, ptr %95, i32 0, i32 7
  %97 = load ptr, ptr %96, align 8, !tbaa !103
  %98 = load ptr, ptr %7, align 8, !tbaa !152
  %99 = getelementptr inbounds nuw %struct.LUT, ptr %98, i32 0, i32 0
  %100 = load ptr, ptr %99, align 8, !tbaa !162
  %101 = load i32, ptr %9, align 4, !tbaa !24
  %102 = sext i32 %101 to i64
  %103 = getelementptr inbounds ptr, ptr %100, i64 %102
  %104 = load ptr, ptr %103, align 8, !tbaa !163
  %105 = load i32, ptr %11, align 4, !tbaa !24
  %106 = sext i32 %105 to i64
  %107 = getelementptr inbounds ptr, ptr %104, i64 %106
  %108 = load ptr, ptr %107, align 8, !tbaa !72
  %109 = load ptr, ptr %7, align 8, !tbaa !152
  %110 = getelementptr inbounds nuw %struct.LUT, ptr %109, i32 0, i32 6
  %111 = load i32, ptr %110, align 8, !tbaa !169
  %112 = load ptr, ptr %6, align 8, !tbaa !97
  %113 = getelementptr inbounds nuw %struct.IPlane, ptr %112, i32 0, i32 5
  %114 = load i32, ptr %113, align 8, !tbaa !101
  %115 = mul nsw i32 %111, %114
  %116 = sext i32 %115 to i64
  %117 = sub i64 0, %116
  %118 = getelementptr inbounds i8, ptr %108, i64 %117
  %119 = load ptr, ptr %7, align 8, !tbaa !152
  %120 = getelementptr inbounds nuw %struct.LUT, ptr %119, i32 0, i32 0
  %121 = load ptr, ptr %120, align 8, !tbaa !162
  %122 = load i32, ptr %9, align 4, !tbaa !24
  %123 = sext i32 %122 to i64
  %124 = getelementptr inbounds ptr, ptr %121, i64 %123
  %125 = load ptr, ptr %124, align 8, !tbaa !163
  %126 = load i32, ptr %11, align 4, !tbaa !24
  %127 = sub nsw i32 %126, 1
  %128 = sext i32 %127 to i64
  %129 = getelementptr inbounds ptr, ptr %125, i64 %128
  %130 = load ptr, ptr %129, align 8, !tbaa !72
  %131 = load ptr, ptr %7, align 8, !tbaa !152
  %132 = getelementptr inbounds nuw %struct.LUT, ptr %131, i32 0, i32 6
  %133 = load i32, ptr %132, align 8, !tbaa !169
  %134 = load ptr, ptr %6, align 8, !tbaa !97
  %135 = getelementptr inbounds nuw %struct.IPlane, ptr %134, i32 0, i32 5
  %136 = load i32, ptr %135, align 8, !tbaa !101
  %137 = mul nsw i32 %133, %136
  %138 = sext i32 %137 to i64
  %139 = sub i64 0, %138
  %140 = getelementptr inbounds i8, ptr %130, i64 %139
  %141 = load ptr, ptr %7, align 8, !tbaa !152
  %142 = getelementptr inbounds nuw %struct.LUT, ptr %141, i32 0, i32 0
  %143 = load ptr, ptr %142, align 8, !tbaa !162
  %144 = load i32, ptr %9, align 4, !tbaa !24
  %145 = sext i32 %144 to i64
  %146 = getelementptr inbounds ptr, ptr %143, i64 %145
  %147 = load ptr, ptr %146, align 8, !tbaa !163
  %148 = load i32, ptr %11, align 4, !tbaa !24
  %149 = sub nsw i32 %148, 1
  %150 = sext i32 %149 to i64
  %151 = getelementptr inbounds ptr, ptr %147, i64 %150
  %152 = load ptr, ptr %151, align 8, !tbaa !72
  %153 = load i32, ptr %12, align 4, !tbaa !24
  %154 = load ptr, ptr %7, align 8, !tbaa !152
  %155 = getelementptr inbounds nuw %struct.LUT, ptr %154, i32 0, i32 6
  %156 = load i32, ptr %155, align 8, !tbaa !169
  %157 = sub nsw i32 %153, %156
  %158 = load ptr, ptr %6, align 8, !tbaa !97
  %159 = getelementptr inbounds nuw %struct.IPlane, ptr %158, i32 0, i32 5
  %160 = load i32, ptr %159, align 8, !tbaa !101
  %161 = mul nsw i32 %157, %160
  %162 = sext i32 %161 to i64
  %163 = getelementptr inbounds i8, ptr %152, i64 %162
  %164 = load ptr, ptr %7, align 8, !tbaa !152
  %165 = getelementptr inbounds nuw %struct.LUT, ptr %164, i32 0, i32 5
  %166 = load i32, ptr %165, align 4, !tbaa !168
  %167 = load ptr, ptr %7, align 8, !tbaa !152
  %168 = getelementptr inbounds nuw %struct.LUT, ptr %167, i32 0, i32 6
  %169 = load i32, ptr %168, align 8, !tbaa !169
  %170 = add nsw i32 %166, %169
  %171 = load i32, ptr %12, align 4, !tbaa !24
  %172 = sub nsw i32 %170, %171
  call void %97(ptr noundef %118, ptr noundef %140, ptr noundef %163, i32 noundef %172)
  %173 = load ptr, ptr %7, align 8, !tbaa !152
  %174 = getelementptr inbounds nuw %struct.LUT, ptr %173, i32 0, i32 0
  %175 = load ptr, ptr %174, align 8, !tbaa !162
  %176 = load i32, ptr %9, align 4, !tbaa !24
  %177 = sext i32 %176 to i64
  %178 = getelementptr inbounds ptr, ptr %175, i64 %177
  %179 = load ptr, ptr %178, align 8, !tbaa !163
  %180 = load i32, ptr %11, align 4, !tbaa !24
  %181 = sext i32 %180 to i64
  %182 = getelementptr inbounds ptr, ptr %179, i64 %181
  %183 = load ptr, ptr %182, align 8, !tbaa !72
  %184 = load ptr, ptr %7, align 8, !tbaa !152
  %185 = getelementptr inbounds nuw %struct.LUT, ptr %184, i32 0, i32 5
  %186 = load i32, ptr %185, align 4, !tbaa !168
  %187 = load i32, ptr %12, align 4, !tbaa !24
  %188 = sub nsw i32 %186, %187
  %189 = load ptr, ptr %6, align 8, !tbaa !97
  %190 = getelementptr inbounds nuw %struct.IPlane, ptr %189, i32 0, i32 5
  %191 = load i32, ptr %190, align 8, !tbaa !101
  %192 = mul nsw i32 %188, %191
  %193 = sext i32 %192 to i64
  %194 = getelementptr inbounds i8, ptr %183, i64 %193
  %195 = load ptr, ptr %7, align 8, !tbaa !152
  %196 = getelementptr inbounds nuw %struct.LUT, ptr %195, i32 0, i32 0
  %197 = load ptr, ptr %196, align 8, !tbaa !162
  %198 = load i32, ptr %9, align 4, !tbaa !24
  %199 = sext i32 %198 to i64
  %200 = getelementptr inbounds ptr, ptr %197, i64 %199
  %201 = load ptr, ptr %200, align 8, !tbaa !163
  %202 = load i32, ptr %11, align 4, !tbaa !24
  %203 = sub nsw i32 %202, 1
  %204 = sext i32 %203 to i64
  %205 = getelementptr inbounds ptr, ptr %201, i64 %204
  %206 = load ptr, ptr %205, align 8, !tbaa !72
  %207 = load ptr, ptr %7, align 8, !tbaa !152
  %208 = getelementptr inbounds nuw %struct.LUT, ptr %207, i32 0, i32 5
  %209 = load i32, ptr %208, align 4, !tbaa !168
  %210 = load i32, ptr %12, align 4, !tbaa !24
  %211 = sub nsw i32 %209, %210
  %212 = load ptr, ptr %6, align 8, !tbaa !97
  %213 = getelementptr inbounds nuw %struct.IPlane, ptr %212, i32 0, i32 5
  %214 = load i32, ptr %213, align 8, !tbaa !101
  %215 = mul nsw i32 %211, %214
  %216 = sext i32 %215 to i64
  %217 = getelementptr inbounds i8, ptr %206, i64 %216
  %218 = load i32, ptr %12, align 4, !tbaa !24
  %219 = load ptr, ptr %6, align 8, !tbaa !97
  %220 = getelementptr inbounds nuw %struct.IPlane, ptr %219, i32 0, i32 5
  %221 = load i32, ptr %220, align 8, !tbaa !101
  %222 = mul nsw i32 %218, %221
  %223 = sext i32 %222 to i64
  call void @llvm.memcpy.p0.p0.i64(ptr align 1 %194, ptr align 1 %217, i64 %223, i1 false)
  call void @llvm.lifetime.end.p0(i64 4, ptr %12) #12
  br label %224

224:                                              ; preds = %78
  %225 = load i32, ptr %11, align 4, !tbaa !24
  %226 = add nsw i32 %225, 1
  store i32 %226, ptr %11, align 4, !tbaa !24
  br label %71, !llvm.loop !170

227:                                              ; preds = %77
  ret void
}